; Function Attrs: mustprogress uwtable
define dso_local void @_ZN3net21QuicSentPacketManager20OnApplicationLimitedEv(ptr nocapture noundef nonnull readonly align 8 dereferenceable(776) %this) unnamed_addr #0 align 2 {
entry:
  %send_algorithm_ = getelementptr inbounds i8, ptr %this, i64 488
  %0 = load ptr, ptr %send_algorithm_, align 8
  %bytes_in_flight_.i = getelementptr inbounds i8, ptr %this, i64 112
  %1 = load i64, ptr %bytes_in_flight_.i, align 8
  %vtable = load ptr, ptr %0, align 8
  %vfn = getelementptr inbounds i8, ptr %vtable, i64 152
  %2 = load ptr, ptr %vfn, align 8
  tail call void %2(ptr noundef nonnull align 8 dereferenceable(8) %0, i64 noundef %1)
  ret void
}